target datalayout = "e-m:e-p270:32:32-p271:32:32-p272:64:64-i64:64-i128:128-f80:128-n8:16:32:64-S128"
target triple = "x86_64-unknown-linux-gnu"

%"class.probe::result" = type { double }
%class.arith_util = type { ptr, ptr }
%class.goal = type <{ ptr, %class.ref, %class.ref.0, %class.ref.1, i32, [4 x i8], %"class.std::__cxx11::basic_string", %"class.parray_manager<ast_manager::expr_array_config>::ref", %"class.parray_manager<ast_manager::expr_array_config>::ref", %"class.parray_manager<ast_manager::expr_dependency_array_config>::ref", i32, [4 x i8] }>
%class.ref = type { ptr }
%class.ref.0 = type { ptr }
%class.ref.1 = type { ptr }
%"class.std::__cxx11::basic_string" = type { %"struct.std::__cxx11::basic_string<char>::_Alloc_hider", i64, %union.anon }
%"struct.std::__cxx11::basic_string<char>::_Alloc_hider" = type { ptr }
%union.anon = type { i64, [8 x i8] }
%"class.parray_manager<ast_manager::expr_array_config>::ref" = type <{ ptr, i32, [4 x i8] }>
%"class.parray_manager<ast_manager::expr_dependency_array_config>::ref" = type <{ ptr, i32, [4 x i8] }>
%"struct.(anonymous namespace)::is_non_nira_functor" = type <{ ptr, %class.arith_util, i8, i8, i8, i8, [4 x i8] }>

; Function Attrs: mustprogress uwtable
define internal void @_ZN12_GLOBAL__N_119is_non_nira_functorC2ER11ast_managerbbbb(ptr noundef nonnull align 8 dereferenceable(28) %this, ptr noundef nonnull align 8 dereferenceable(976) %_m, i1 noundef zeroext %_int, i1 noundef zeroext %_real, i1 noundef zeroext %_quant, i1 noundef zeroext %linear) unnamed_addr #4 align 2 {
entry:
  %this.addr = alloca ptr, align 8
  %_m.addr = alloca ptr, align 8
  %_int.addr = alloca i8, align 1
  %_real.addr = alloca i8, align 1
  %_quant.addr = alloca i8, align 1
  %linear.addr = alloca i8, align 1
  store ptr %this, ptr %this.addr, align 8
  store ptr %_m, ptr %_m.addr, align 8
  %frombool = zext i1 %_int to i8
  store i8 %frombool, ptr %_int.addr, align 1
  %frombool1 = zext i1 %_real to i8
  store i8 %frombool1, ptr %_real.addr, align 1
  %frombool2 = zext i1 %_quant to i8
  store i8 %frombool2, ptr %_quant.addr, align 1
  %frombool3 = zext i1 %linear to i8
  store i8 %frombool3, ptr %linear.addr, align 1
  %this4 = load ptr, ptr %this.addr, align 8
  %m = getelementptr inbounds %"struct.(anonymous namespace)::is_non_nira_functor", ptr %this4, i32 0, i32 0
  %0 = load ptr, ptr %_m.addr, align 8
  store ptr %0, ptr %m, align 8
  %u = getelementptr inbounds %"struct.(anonymous namespace)::is_non_nira_functor", ptr %this4, i32 0, i32 1
  %m5 = getelementptr inbounds %"struct.(anonymous namespace)::is_non_nira_functor", ptr %this4, i32 0, i32 0
  %1 = load ptr, ptr %m5, align 8
  call void @_ZN10arith_utilC1ER11ast_manager(ptr noundef nonnull align 8 dereferenceable(16) %u, ptr noundef nonnull align 8 dereferenceable(976) %1)
  %m_int = getelementptr inbounds %"struct.(anonymous namespace)::is_non_nira_functor", ptr %this4, i32 0, i32 2
  %2 = load i8, ptr %_int.addr, align 1
  %tobool = trunc i8 %2 to i1
  %frombool6 = zext i1 %tobool to i8
  store i8 %frombool6, ptr %m_int, align 8
  %m_real = getelementptr inbounds %"struct.(anonymous namespace)::is_non_nira_functor", ptr %this4, i32 0, i32 3
  %3 = load i8, ptr %_real.addr, align 1
  %tobool7 = trunc i8 %3 to i1
  %frombool8 = zext i1 %tobool7 to i8
  store i8 %frombool8, ptr %m_real, align 1
  %m_quant = getelementptr inbounds %"struct.(anonymous namespace)::is_non_nira_functor", ptr %this4, i32 0, i32 4
  %4 = load i8, ptr %_quant.addr, align 1
  %tobool9 = trunc i8 %4 to i1
  %frombool10 = zext i1 %tobool9 to i8
  store i8 %frombool10, ptr %m_quant, align 2
  %m_linear = getelementptr inbounds %"struct.(anonymous namespace)::is_non_nira_functor", ptr %this4, i32 0, i32 5
  %5 = load i8, ptr %linear.addr, align 1
  %tobool11 = trunc i8 %5 to i1
  %frombool12 = zext i1 %tobool11 to i8
  store i8 %frombool12, ptr %m_linear, align 1
  ret void
}

; Function Attrs: mustprogress nounwind uwtable
define linkonce_odr hidden noundef nonnull align 8 dereferenceable(976) ptr @_ZNK4goal1mEv(ptr noundef nonnull align 8 dereferenceable(124) %this) #5 comdat align 2 {
entry:
  %this.addr = alloca ptr, align 8
  store ptr %this, ptr %this.addr, align 8
  %this1 = load ptr, ptr %this.addr, align 8
  %m_manager = getelementptr inbounds %class.goal, ptr %this1, i32 0, i32 0
  %0 = load ptr, ptr %m_manager, align 8
  ret ptr %0
}

; Function Attrs: mustprogress nounwind uwtable
define linkonce_odr hidden void @_ZN5probe6resultC2Eb(ptr noundef nonnull align 8 dereferenceable(8) %this, i1 noundef zeroext %b) unnamed_addr #5 comdat align 2 {
entry:
  %this.addr = alloca ptr, align 8
  %b.addr = alloca i8, align 1
  store ptr %this, ptr %this.addr, align 8
  %frombool = zext i1 %b to i8
  store i8 %frombool, ptr %b.addr, align 1
  %this1 = load ptr, ptr %this.addr, align 8
  %m_value = getelementptr inbounds %"class.probe::result", ptr %this1, i32 0, i32 0
  %0 = load i8, ptr %b.addr, align 1
  %tobool = trunc i8 %0 to i1
  %cond = select i1 %tobool, double 1.000000e+00, double 0.000000e+00
  store double %cond, ptr %m_value, align 8
  ret void
}

; Function Attrs: mustprogress uwtable
define internal noundef zeroext i1 @_ZN12_GLOBAL__N_18is_qfniaERK4goal(ptr noundef nonnull align 8 dereferenceable(124) %g) #4 {
entry:
  %g.addr = alloca ptr, align 8
  %p = alloca %"struct.(anonymous namespace)::is_non_nira_functor", align 8
  store ptr %g, ptr %g.addr, align 8
  %0 = load ptr, ptr %g.addr, align 8
  %call = call noundef nonnull align 8 dereferenceable(976) ptr @_ZNK4goal1mEv(ptr noundef nonnull align 8 dereferenceable(124) %0)
  call void @_ZN12_GLOBAL__N_119is_non_nira_functorC2ER11ast_managerbbbb(ptr noundef nonnull align 8 dereferenceable(28) %p, ptr noundef nonnull align 8 dereferenceable(976) %call, i1 noundef zeroext true, i1 noundef zeroext false, i1 noundef zeroext false, i1 noundef zeroext false)
  %1 = load ptr, ptr %g.addr, align 8
  %call1 = call noundef zeroext i1 @_Z4testIN12_GLOBAL__N_119is_non_nira_functorEEbRK4goalRT_(ptr noundef nonnull align 8 dereferenceable(124) %1, ptr noundef nonnull align 8 dereferenceable(28) %p)
  br i1 %call1, label %land.end, label %land.rhs

land.rhs:                                         ; preds = %entry
  %2 = load ptr, ptr %g.addr, align 8
  %call2 = call noundef zeroext i1 @_Z4testIN12_GLOBAL__N_19has_nlmulEEbRK4goal(ptr noundef nonnull align 8 dereferenceable(124) %2)
  br label %land.end

land.end:                                         ; preds = %land.rhs, %entry
  %3 = phi i1 [ false, %entry ], [ %call2, %land.rhs ]
  ret i1 %3
}

; Function Attrs: mustprogress uwtable
define internal double @_ZN12_GLOBAL__N_114is_qfnia_probeclERK4goal(ptr noundef nonnull align 8 dereferenceable(12) %this, ptr noundef nonnull align 8 dereferenceable(124) %g) unnamed_addr #4 align 2 {
entry:
  %retval = alloca %"class.probe::result", align 8
  %this.addr = alloca ptr, align 8
  %g.addr = alloca ptr, align 8
  store ptr %this, ptr %this.addr, align 8
  store ptr %g, ptr %g.addr, align 8
  %0 = load ptr, ptr %g.addr, align 8
  %call = call noundef zeroext i1 @_ZN12_GLOBAL__N_18is_qfniaERK4goal(ptr noundef nonnull align 8 dereferenceable(124) %0)
  call void @_ZN5probe6resultC2Eb(ptr noundef nonnull align 8 dereferenceable(8) %retval, i1 noundef zeroext %call)
  %coerce.dive = getelementptr inbounds %"class.probe::result", ptr %retval, i32 0, i32 0
  %1 = load double, ptr %coerce.dive, align 8
  ret double %1
}